target datalayout = "e-m:e-p270:32:32-p271:32:32-p272:64:64-i64:64-i128:128-f80:128-n8:16:32:64-S128"
target triple = "x86_64-pc-linux-gnu"

%struct.archive_write = type { %struct.archive, i32, i64, i64, ptr, i64, ptr, ptr, ptr, ptr, ptr, i32, i32, ptr, ptr, ptr, ptr, ptr, ptr, ptr, ptr, ptr, ptr, ptr, ptr, ptr, ptr }
%struct.archive = type { i32, i32, ptr, i32, ptr, i32, i32, ptr, %struct.archive_string, ptr, i32, i32, ptr, ptr, i64, i64, i64, i8, i64 }
%struct.archive_string = type { ptr, i64, i64 }
%struct.zip = type { i64, i64, i64, i64, i64, i64, ptr, i32, i32, i32, i32, i32, %struct.trad_enc_ctx, i8, i8, i32, %struct.archive_crypto_ctx, i8, ptr, i8, ptr, i64, ptr, ptr, ptr, i64, i64, i64, ptr, ptr, i32, i32, i32, i32, i32, %struct.z_stream_s, i64, ptr }
%struct.trad_enc_ctx = type { [3 x i32] }
%struct.archive_crypto_ctx = type { ptr, ptr, [32 x i8], i32, [16 x i8], [16 x i8], i32 }
%struct.z_stream_s = type { ptr, i32, i64, ptr, i32, i64, ptr, ptr, ptr, ptr, ptr, i32, i64, i64 }

@.str.3 = private unnamed_addr constant [29 x i8] c"archive_write_set_format_zip\00", align 1
@.str.4 = private unnamed_addr constant [24 x i8] c"Can't allocate zip data\00", align 1
@.str.5 = private unnamed_addr constant [34 x i8] c"Can't allocate compression buffer\00", align 1
@.str.6 = private unnamed_addr constant [4 x i8] c"zip\00", align 1
@.str.7 = private unnamed_addr constant [4 x i8] c"ZIP\00", align 1

; Function Attrs: nounwind uwtable
define dso_local i32 @archive_write_set_format_zip(ptr noundef %0) #0 {
  %2 = alloca i32, align 4
  %3 = alloca ptr, align 8
  %4 = alloca ptr, align 8
  %5 = alloca ptr, align 8
  %6 = alloca i32, align 4
  %7 = alloca i32, align 4
  store ptr %0, ptr %3, align 8, !tbaa !4
  call void @llvm.lifetime.start.p0(i64 8, ptr %4) #11
  %8 = load ptr, ptr %3, align 8, !tbaa !4
  store ptr %8, ptr %4, align 8, !tbaa !9
  call void @llvm.lifetime.start.p0(i64 8, ptr %5) #11
  br label %9

9:                                                ; preds = %1
  call void @llvm.lifetime.start.p0(i64 4, ptr %6) #11
  %10 = load ptr, ptr %3, align 8, !tbaa !4
  %11 = call i32 @__archive_check_magic(ptr noundef %10, i32 noundef -1329217314, i32 noundef 1, ptr noundef @.str.3)
  store i32 %11, ptr %6, align 4, !tbaa !11
  %12 = load i32, ptr %6, align 4, !tbaa !11
  %13 = icmp eq i32 %12, -30
  br i1 %13, label %14, label %15

14:                                               ; preds = %9
  store i32 -30, ptr %2, align 4
  store i32 1, ptr %7, align 4
  br label %16

15:                                               ; preds = %9
  store i32 0, ptr %7, align 4
  br label %16

16:                                               ; preds = %15, %14
  call void @llvm.lifetime.end.p0(i64 4, ptr %6) #11
  %17 = load i32, ptr %7, align 4
  switch i32 %17, label %85 [
    i32 0, label %18
  ]

18:                                               ; preds = %16
  br label %19

19:                                               ; preds = %18
  br label %20

20:                                               ; preds = %19
  %21 = load ptr, ptr %4, align 8, !tbaa !9
  %22 = getelementptr inbounds nuw %struct.archive_write, ptr %21, i32 0, i32 23
  %23 = load ptr, ptr %22, align 8, !tbaa !36
  %24 = icmp ne ptr %23, null
  br i1 %24, label %25, label %31

25:                                               ; preds = %20
  %26 = load ptr, ptr %4, align 8, !tbaa !9
  %27 = getelementptr inbounds nuw %struct.archive_write, ptr %26, i32 0, i32 23
  %28 = load ptr, ptr %27, align 8, !tbaa !36
  %29 = load ptr, ptr %4, align 8, !tbaa !9
  %30 = call i32 %28(ptr noundef %29)
  br label %31

31:                                               ; preds = %25, %20
  %32 = call noalias ptr @calloc(i64 noundef 1, i64 noundef 440) #12
  store ptr %32, ptr %5, align 8, !tbaa !23
  %33 = load ptr, ptr %5, align 8, !tbaa !23
  %34 = icmp eq ptr %33, null
  br i1 %34, label %35, label %38

35:                                               ; preds = %31
  %36 = load ptr, ptr %4, align 8, !tbaa !9
  %37 = getelementptr inbounds nuw %struct.archive_write, ptr %36, i32 0, i32 0
  call void (ptr, i32, ptr, ...) @archive_set_error(ptr noundef %37, i32 noundef 12, ptr noundef @.str.4)
  store i32 -30, ptr %2, align 4
  store i32 1, ptr %7, align 4
  br label %85

38:                                               ; preds = %31
  %39 = load ptr, ptr %5, align 8, !tbaa !23
  %40 = getelementptr inbounds nuw %struct.zip, ptr %39, i32 0, i32 30
  store i32 -1, ptr %40, align 8, !tbaa !25
  %41 = load ptr, ptr %5, align 8, !tbaa !23
  %42 = getelementptr inbounds nuw %struct.zip, ptr %41, i32 0, i32 31
  store i32 -1, ptr %42, align 4, !tbaa !37
  %43 = load ptr, ptr %5, align 8, !tbaa !23
  %44 = getelementptr inbounds nuw %struct.zip, ptr %43, i32 0, i32 22
  store ptr @real_crc32, ptr %44, align 8, !tbaa !38
  %45 = load ptr, ptr %5, align 8, !tbaa !23
  %46 = getelementptr inbounds nuw %struct.zip, ptr %45, i32 0, i32 36
  store i64 65536, ptr %46, align 8, !tbaa !39
  %47 = load ptr, ptr %5, align 8, !tbaa !23
  %48 = getelementptr inbounds nuw %struct.zip, ptr %47, i32 0, i32 36
  %49 = load i64, ptr %48, align 8, !tbaa !39
  %50 = call noalias ptr @malloc(i64 noundef %49) #13
  %51 = load ptr, ptr %5, align 8, !tbaa !23
  %52 = getelementptr inbounds nuw %struct.zip, ptr %51, i32 0, i32 37
  store ptr %50, ptr %52, align 8, !tbaa !40
  %53 = load ptr, ptr %5, align 8, !tbaa !23
  %54 = getelementptr inbounds nuw %struct.zip, ptr %53, i32 0, i32 37
  %55 = load ptr, ptr %54, align 8, !tbaa !40
  %56 = icmp eq ptr %55, null
  br i1 %56, label %57, label %61

57:                                               ; preds = %38
  %58 = load ptr, ptr %5, align 8, !tbaa !23
  call void @free(ptr noundef %58) #11
  %59 = load ptr, ptr %4, align 8, !tbaa !9
  %60 = getelementptr inbounds nuw %struct.archive_write, ptr %59, i32 0, i32 0
  call void (ptr, i32, ptr, ...) @archive_set_error(ptr noundef %60, i32 noundef 12, ptr noundef @.str.5)
  store i32 -30, ptr %2, align 4
  store i32 1, ptr %7, align 4
  br label %85

61:                                               ; preds = %38
  %62 = load ptr, ptr %5, align 8, !tbaa !23
  %63 = load ptr, ptr %4, align 8, !tbaa !9
  %64 = getelementptr inbounds nuw %struct.archive_write, ptr %63, i32 0, i32 15
  store ptr %62, ptr %64, align 8, !tbaa !22
  %65 = load ptr, ptr %4, align 8, !tbaa !9
  %66 = getelementptr inbounds nuw %struct.archive_write, ptr %65, i32 0, i32 16
  store ptr @.str.6, ptr %66, align 8, !tbaa !41
  %67 = load ptr, ptr %4, align 8, !tbaa !9
  %68 = getelementptr inbounds nuw %struct.archive_write, ptr %67, i32 0, i32 18
  store ptr @archive_write_zip_options, ptr %68, align 8, !tbaa !42
  %69 = load ptr, ptr %4, align 8, !tbaa !9
  %70 = getelementptr inbounds nuw %struct.archive_write, ptr %69, i32 0, i32 20
  store ptr @archive_write_zip_header, ptr %70, align 8, !tbaa !43
  %71 = load ptr, ptr %4, align 8, !tbaa !9
  %72 = getelementptr inbounds nuw %struct.archive_write, ptr %71, i32 0, i32 21
  store ptr @archive_write_zip_data, ptr %72, align 8, !tbaa !44
  %73 = load ptr, ptr %4, align 8, !tbaa !9
  %74 = getelementptr inbounds nuw %struct.archive_write, ptr %73, i32 0, i32 19
  store ptr @archive_write_zip_finish_entry, ptr %74, align 8, !tbaa !45
  %75 = load ptr, ptr %4, align 8, !tbaa !9
  %76 = getelementptr inbounds nuw %struct.archive_write, ptr %75, i32 0, i32 22
  store ptr @archive_write_zip_close, ptr %76, align 8, !tbaa !46
  %77 = load ptr, ptr %4, align 8, !tbaa !9
  %78 = getelementptr inbounds nuw %struct.archive_write, ptr %77, i32 0, i32 23
  store ptr @archive_write_zip_free, ptr %78, align 8, !tbaa !36
  %79 = load ptr, ptr %4, align 8, !tbaa !9
  %80 = getelementptr inbounds nuw %struct.archive_write, ptr %79, i32 0, i32 0
  %81 = getelementptr inbounds nuw %struct.archive, ptr %80, i32 0, i32 3
  store i32 327680, ptr %81, align 8, !tbaa !13
  %82 = load ptr, ptr %4, align 8, !tbaa !9
  %83 = getelementptr inbounds nuw %struct.archive_write, ptr %82, i32 0, i32 0
  %84 = getelementptr inbounds nuw %struct.archive, ptr %83, i32 0, i32 4
  store ptr @.str.7, ptr %84, align 8, !tbaa !47
  store i32 0, ptr %2, align 4
  store i32 1, ptr %7, align 4
  br label %85

85:                                               ; preds = %61, %57, %35, %16
  call void @llvm.lifetime.end.p0(i64 8, ptr %5) #11
  call void @llvm.lifetime.end.p0(i64 8, ptr %4) #11
  %86 = load i32, ptr %2, align 4
  ret i32 %86
}