; Function Attrs: nounwind uwtable
define dso_local range(i32 -30, 1) i32 @archive_write_set_format_zip(ptr noundef %0) local_unnamed_addr #0 {
  %2 = tail call i32 @__archive_check_magic(ptr noundef %0, i32 noundef -1329217314, i32 noundef 1, ptr noundef nonnull @.str.3) #13
  %.not = icmp eq i32 %2, -30
  br i1 %.not, label %31, label %3

3:                                                ; preds = %1
  %4 = getelementptr inbounds nuw i8, ptr %0, i64 312
  %5 = load ptr, ptr %4, align 8, !tbaa !29
  %.not32 = icmp eq ptr %5, null
  br i1 %.not32, label %8, label %6

6:                                                ; preds = %3
  %7 = tail call i32 %5(ptr noundef nonnull %0) #13
  br label %8

8:                                                ; preds = %6, %3
  %9 = tail call noalias dereferenceable_or_null(440) ptr @calloc(i64 noundef 1, i64 noundef 440) #14
  %10 = icmp eq ptr %9, null
  br i1 %10, label %11, label %12

11:                                               ; preds = %8
  tail call void (ptr, i32, ptr, ...) @archive_set_error(ptr noundef nonnull %0, i32 noundef 12, ptr noundef nonnull @.str.4) #13
  br label %31

12:                                               ; preds = %8
  %13 = getelementptr inbounds nuw i8, ptr %9, i64 288
  store i32 -1, ptr %13, align 8, !tbaa !18
  %14 = getelementptr inbounds nuw i8, ptr %9, i64 292
  store i32 -1, ptr %14, align 4, !tbaa !30
  %15 = getelementptr inbounds nuw i8, ptr %9, i64 224
  store ptr @real_crc32, ptr %15, align 8, !tbaa !31
  %16 = getelementptr inbounds nuw i8, ptr %9, i64 424
  store i64 65536, ptr %16, align 8, !tbaa !32
  %17 = tail call noalias dereferenceable_or_null(65536) ptr @malloc(i64 noundef 65536) #15
  %18 = getelementptr inbounds nuw i8, ptr %9, i64 432
  store ptr %17, ptr %18, align 8, !tbaa !33
  %19 = icmp eq ptr %17, null
  br i1 %19, label %20, label %21

20:                                               ; preds = %12
  tail call void @free(ptr noundef nonnull %9) #13
  tail call void (ptr, i32, ptr, ...) @archive_set_error(ptr noundef nonnull %0, i32 noundef 12, ptr noundef nonnull @.str.5) #13
  br label %31

21:                                               ; preds = %12
  %22 = getelementptr inbounds nuw i8, ptr %0, i64 248
  store ptr %9, ptr %22, align 8, !tbaa !17
  %23 = getelementptr inbounds nuw i8, ptr %0, i64 256
  store ptr @.str.6, ptr %23, align 8, !tbaa !34
  %24 = getelementptr inbounds nuw i8, ptr %0, i64 272
  store ptr @archive_write_zip_options, ptr %24, align 8, !tbaa !35
  %25 = getelementptr inbounds nuw i8, ptr %0, i64 288
  store ptr @archive_write_zip_header, ptr %25, align 8, !tbaa !36
  %26 = getelementptr inbounds nuw i8, ptr %0, i64 296
  store ptr @archive_write_zip_data, ptr %26, align 8, !tbaa !37
  %27 = getelementptr inbounds nuw i8, ptr %0, i64 280
  store ptr @archive_write_zip_finish_entry, ptr %27, align 8, !tbaa !38
  %28 = getelementptr inbounds nuw i8, ptr %0, i64 304
  store ptr @archive_write_zip_close, ptr %28, align 8, !tbaa !39
  store ptr @archive_write_zip_free, ptr %4, align 8, !tbaa !29
  %29 = getelementptr inbounds nuw i8, ptr %0, i64 16
  store i32 327680, ptr %29, align 8, !tbaa !4
  %30 = getelementptr inbounds nuw i8, ptr %0, i64 24
  store ptr @.str.7, ptr %30, align 8, !tbaa !40
  br label %31

31:                                               ; preds = %1, %21, %20, %11
  %.1 = phi i32 [ -30, %11 ], [ -30, %20 ], [ 0, %21 ], [ -30, %1 ]
  ret i32 %.1
}